; Function Attrs: mustprogress nounwind uwtable
define hidden void @_ZN14TimePartitionsD2Ev(ptr nocapture noundef nonnull align 8 dereferenceable(72) %0) unnamed_addr #3 align 2 {
  %2 = load ptr, ptr %0, align 8
  %3 = icmp eq ptr %2, null
  br i1 %3, label %9, label %4

4:                                                ; preds = %1
  %5 = getelementptr inbounds i8, ptr %2, i64 16
  %6 = load i64, ptr %5, align 8
  %7 = and i64 %6, 1
  %.not.i = icmp eq i64 %7, 0
  br i1 %.not.i, label %_ZN13GrowableArrayI7GCPhaseED2Ev.exit, label %8

8:                                                ; preds = %4
  store i32 0, ptr %2, align 4
  tail call void @_ZN26GrowableArrayWithAllocatorI7GCPhase13GrowableArrayIS0_EE13shrink_to_fitEv(ptr noundef nonnull align 8 dereferenceable(16) %2)
  br label %_ZN13GrowableArrayI7GCPhaseED2Ev.exit

_ZN13GrowableArrayI7GCPhaseED2Ev.exit:            ; preds = %4, %8
  tail call void @_ZN6AnyObjdlEPv(ptr noundef nonnull %2) #15
  br label %9

9:                                                ; preds = %_ZN13GrowableArrayI7GCPhaseED2Ev.exit, %1
  store ptr null, ptr %0, align 8
  ret void
}